target datalayout = "e-m:e-p270:32:32-p271:32:32-p272:64:64-i64:64-i128:128-f80:128-n8:16:32:64-S128"
target triple = "x86_64-pc-linux-gnu"

%struct._zend_libxml_globals = type { %struct._zval_struct, %struct.smart_str, ptr, %struct._zend_fcall_info_cache, i8 }
%struct._zval_struct = type { %union._zend_value, %union.anon, %union.anon.2 }
%union._zend_value = type { i64 }
%union.anon = type { i32 }
%union.anon.2 = type { i32 }
%struct.smart_str = type { ptr, i64 }
%struct._zend_fcall_info_cache = type { ptr, ptr, ptr, ptr, ptr }
%struct._zend_array = type { %struct._zend_refcounted_h, %union.anon.4, i32, %union.anon.6, i32, i32, i32, i32, i64, ptr }
%struct._zend_refcounted_h = type { i32, %union.anon.3 }
%union.anon.3 = type { i32 }
%union.anon.4 = type { i32 }
%union.anon.6 = type { ptr }
%struct._xmlError = type { i32, i32, ptr, i32, ptr, i32, ptr, ptr, ptr, i32, i32, ptr, ptr }
%struct._zend_execute_data = type { ptr, ptr, ptr, ptr, %struct._zval_struct, ptr, ptr, ptr, ptr }

@libxml_globals = internal global %struct._zend_libxml_globals zeroinitializer, align 8
@libxmlerror_class_entry = internal global ptr null, align 8
@.str.5 = private unnamed_addr constant [6 x i8] c"level\00", align 1
@.str.6 = private unnamed_addr constant [5 x i8] c"code\00", align 1
@.str.7 = private unnamed_addr constant [7 x i8] c"column\00", align 1
@.str.8 = private unnamed_addr constant [8 x i8] c"message\00", align 1
@.str.9 = private unnamed_addr constant [1 x i8] zeroinitializer, align 1
@.str.10 = private unnamed_addr constant [5 x i8] c"file\00", align 1
@.str.11 = private unnamed_addr constant [5 x i8] c"line\00", align 1
@zend_empty_array = external constant %struct._zend_array, align 8

; Function Attrs: nounwind uwtable
define hidden void @zif_libxml_get_errors(ptr noundef %0, ptr noundef %1) #0 {
  %3 = alloca ptr, align 8
  %4 = alloca ptr, align 8
  %5 = alloca ptr, align 8
  %6 = alloca ptr, align 8
  %7 = alloca ptr, align 8
  %8 = alloca ptr, align 8
  %9 = alloca ptr, align 8
  %10 = alloca ptr, align 8
  %11 = alloca ptr, align 8
  %12 = alloca %struct._zval_struct, align 8
  %13 = alloca ptr, align 8
  store ptr %0, ptr %7, align 8
  store ptr %1, ptr %8, align 8
  br label %14

14:                                               ; preds = %2
  %15 = load ptr, ptr %7, align 8
  %16 = getelementptr inbounds %struct._zend_execute_data, ptr %15, i32 0, i32 4
  %17 = getelementptr inbounds %struct._zval_struct, ptr %16, i32 0, i32 2
  %18 = load i32, ptr %17, align 4
  %19 = icmp ne i32 %18, 0
  %20 = xor i1 %19, true
  %21 = xor i1 %20, true
  %22 = zext i1 %21 to i32
  %23 = sext i32 %22 to i64
  %24 = icmp ne i64 %23, 0
  br i1 %24, label %25, label %26

25:                                               ; preds = %14
  call void @zend_wrong_parameters_none_error()
  br label %104

26:                                               ; preds = %14
  br label %27

27:                                               ; preds = %26
  %28 = load ptr, ptr getelementptr inbounds (%struct._zend_libxml_globals, ptr @libxml_globals, i32 0, i32 2), align 8
  %29 = icmp ne ptr %28, null
  br i1 %29, label %30, label %94

30:                                               ; preds = %27
  br label %31

31:                                               ; preds = %30
  %32 = call ptr @_zend_new_array_0()
  store ptr %32, ptr %10, align 8
  %33 = load ptr, ptr %8, align 8
  store ptr %33, ptr %11, align 8
  %34 = load ptr, ptr %10, align 8
  %35 = load ptr, ptr %11, align 8
  %36 = getelementptr inbounds %struct._zval_struct, ptr %35, i32 0, i32 0
  store ptr %34, ptr %36, align 8
  %37 = load ptr, ptr %11, align 8
  %38 = getelementptr inbounds %struct._zval_struct, ptr %37, i32 0, i32 1
  store i32 775, ptr %38, align 8
  br label %39

39:                                               ; preds = %31
  %40 = load ptr, ptr getelementptr inbounds (%struct._zend_libxml_globals, ptr @libxml_globals, i32 0, i32 2), align 8
  store ptr %40, ptr %6, align 8
  %41 = load ptr, ptr %6, align 8
  %42 = call ptr @zend_llist_get_first_ex(ptr noundef %41, ptr noundef null) #11
  store ptr %42, ptr %9, align 8
  br label %43

43:                                               ; preds = %80, %39
  %44 = load ptr, ptr %9, align 8
  %45 = icmp ne ptr %44, null
  br i1 %45, label %46, label %93

46:                                               ; preds = %43
  %47 = load ptr, ptr @libxmlerror_class_entry, align 8
  %48 = call i32 @object_init_ex(ptr noundef %12, ptr noundef %47)
  %49 = load ptr, ptr %9, align 8
  %50 = getelementptr inbounds %struct._xmlError, ptr %49, i32 0, i32 3
  %51 = load i32, ptr %50, align 8
  %52 = zext i32 %51 to i64
  call void @add_property_long_ex(ptr noundef %12, ptr noundef @.str.5, i64 noundef 5, i64 noundef %52)
  %53 = load ptr, ptr %9, align 8
  %54 = getelementptr inbounds %struct._xmlError, ptr %53, i32 0, i32 1
  %55 = load i32, ptr %54, align 4
  %56 = sext i32 %55 to i64
  call void @add_property_long_ex(ptr noundef %12, ptr noundef @.str.6, i64 noundef 4, i64 noundef %56)
  %57 = load ptr, ptr %9, align 8
  %58 = getelementptr inbounds %struct._xmlError, ptr %57, i32 0, i32 10
  %59 = load i32, ptr %58, align 4
  %60 = sext i32 %59 to i64
  call void @add_property_long_ex(ptr noundef %12, ptr noundef @.str.7, i64 noundef 6, i64 noundef %60)
  %61 = load ptr, ptr %9, align 8
  %62 = getelementptr inbounds %struct._xmlError, ptr %61, i32 0, i32 2
  %63 = load ptr, ptr %62, align 8
  %64 = icmp ne ptr %63, null
  br i1 %64, label %65, label %69

65:                                               ; preds = %46
  %66 = load ptr, ptr %9, align 8
  %67 = getelementptr inbounds %struct._xmlError, ptr %66, i32 0, i32 2
  %68 = load ptr, ptr %67, align 8
  call void @add_property_string_ex(ptr noundef %12, ptr noundef @.str.8, i64 noundef 7, ptr noundef %68)
  br label %70

69:                                               ; preds = %46
  call void @add_property_stringl_ex(ptr noundef %12, ptr noundef @.str.8, i64 noundef 7, ptr noundef @.str.9, i64 noundef 0)
  br label %70

70:                                               ; preds = %69, %65
  %71 = load ptr, ptr %9, align 8
  %72 = getelementptr inbounds %struct._xmlError, ptr %71, i32 0, i32 4
  %73 = load ptr, ptr %72, align 8
  %74 = icmp ne ptr %73, null
  br i1 %74, label %75, label %79

75:                                               ; preds = %70
  %76 = load ptr, ptr %9, align 8
  %77 = getelementptr inbounds %struct._xmlError, ptr %76, i32 0, i32 4
  %78 = load ptr, ptr %77, align 8
  call void @add_property_string_ex(ptr noundef %12, ptr noundef @.str.10, i64 noundef 4, ptr noundef %78)
  br label %80

79:                                               ; preds = %70
  call void @add_property_stringl_ex(ptr noundef %12, ptr noundef @.str.10, i64 noundef 4, ptr noundef @.str.9, i64 noundef 0)
  br label %80

80:                                               ; preds = %79, %75
  %81 = load ptr, ptr %9, align 8
  %82 = getelementptr inbounds %struct._xmlError, ptr %81, i32 0, i32 5
  %83 = load i32, ptr %82, align 8
  %84 = sext i32 %83 to i64
  call void @add_property_long_ex(ptr noundef %12, ptr noundef @.str.11, i64 noundef 4, i64 noundef %84)
  %85 = load ptr, ptr %8, align 8
  store ptr %85, ptr %4, align 8
  store ptr %12, ptr %5, align 8
  %86 = load ptr, ptr %4, align 8
  %87 = load ptr, ptr %86, align 8
  %88 = load ptr, ptr %5, align 8
  %89 = call ptr @zend_hash_next_index_insert(ptr noundef %87, ptr noundef %88) #11
  %90 = load ptr, ptr getelementptr inbounds (%struct._zend_libxml_globals, ptr @libxml_globals, i32 0, i32 2), align 8
  store ptr %90, ptr %3, align 8
  %91 = load ptr, ptr %3, align 8
  %92 = call ptr @zend_llist_get_next_ex(ptr noundef %91, ptr noundef null) #11
  store ptr %92, ptr %9, align 8
  br label %43

93:                                               ; preds = %43
  br label %104

94:                                               ; preds = %27
  br label %95

95:                                               ; preds = %94
  br label %96

96:                                               ; preds = %95
  %97 = load ptr, ptr %8, align 8
  store ptr %97, ptr %13, align 8
  %98 = load ptr, ptr %13, align 8
  %99 = getelementptr inbounds %struct._zval_struct, ptr %98, i32 0, i32 0
  store ptr @zend_empty_array, ptr %99, align 8
  %100 = load ptr, ptr %13, align 8
  %101 = getelementptr inbounds %struct._zval_struct, ptr %100, i32 0, i32 1
  store i32 7, ptr %101, align 8
  br label %102

102:                                              ; preds = %96
  br label %104

103:                                              ; No predecessors!
  br label %104

104:                                              ; preds = %103, %102, %93, %25
  ret void
}