; Function Attrs: nounwind uwtable
define hidden void @zif_libxml_get_errors(ptr nocapture noundef readonly %0, ptr nocapture noundef %1) #0 {
  %3 = alloca %struct._zval_struct, align 8
  %4 = getelementptr inbounds i8, ptr %0, i64 44
  %5 = load i32, ptr %4, align 4
  %.not = icmp eq i32 %5, 0
  br i1 %.not, label %7, label %6

6:                                                ; preds = %2
  tail call void @zend_wrong_parameters_none_error() #17
  br label %.loopexit

7:                                                ; preds = %2
  %8 = load ptr, ptr getelementptr inbounds (%struct._zend_libxml_globals, ptr @libxml_globals, i64 0, i32 2), align 8
  %.not24 = icmp eq ptr %8, null
  br i1 %.not24, label %42, label %9

9:                                                ; preds = %7
  %10 = tail call ptr @_zend_new_array_0() #17
  store ptr %10, ptr %1, align 8
  %11 = getelementptr inbounds i8, ptr %1, i64 8
  store i32 775, ptr %11, align 8
  %12 = load ptr, ptr getelementptr inbounds (%struct._zend_libxml_globals, ptr @libxml_globals, i64 0, i32 2), align 8
  %13 = tail call ptr @zend_llist_get_first_ex(ptr noundef %12, ptr noundef null) #17
  %.not2528 = icmp eq ptr %13, null
  br i1 %.not2528, label %.loopexit, label %.lr.ph

.lr.ph:                                           ; preds = %9, %34
  %.029 = phi ptr [ %41, %34 ], [ %13, %9 ]
  %14 = load ptr, ptr @libxmlerror_class_entry, align 8
  %15 = call i32 @object_init_ex(ptr noundef nonnull %3, ptr noundef %14) #17
  %16 = getelementptr inbounds i8, ptr %.029, i64 16
  %17 = load i32, ptr %16, align 8
  %18 = zext i32 %17 to i64
  call void @add_property_long_ex(ptr noundef nonnull %3, ptr noundef nonnull @.str.5, i64 noundef 5, i64 noundef %18) #17
  %19 = getelementptr inbounds i8, ptr %.029, i64 4
  %20 = load i32, ptr %19, align 4
  %21 = sext i32 %20 to i64
  call void @add_property_long_ex(ptr noundef nonnull %3, ptr noundef nonnull @.str.6, i64 noundef 4, i64 noundef %21) #17
  %22 = getelementptr inbounds i8, ptr %.029, i64 68
  %23 = load i32, ptr %22, align 4
  %24 = sext i32 %23 to i64
  call void @add_property_long_ex(ptr noundef nonnull %3, ptr noundef nonnull @.str.7, i64 noundef 6, i64 noundef %24) #17
  %25 = getelementptr inbounds i8, ptr %.029, i64 8
  %26 = load ptr, ptr %25, align 8
  %.not26 = icmp eq ptr %26, null
  br i1 %.not26, label %28, label %27

27:                                               ; preds = %.lr.ph
  call void @add_property_string_ex(ptr noundef nonnull %3, ptr noundef nonnull @.str.8, i64 noundef 7, ptr noundef nonnull %26) #17
  br label %29

28:                                               ; preds = %.lr.ph
  call void @add_property_stringl_ex(ptr noundef nonnull %3, ptr noundef nonnull @.str.8, i64 noundef 7, ptr noundef nonnull @.str.9, i64 noundef 0) #17
  br label %29

29:                                               ; preds = %28, %27
  %30 = getelementptr inbounds i8, ptr %.029, i64 24
  %31 = load ptr, ptr %30, align 8
  %.not27 = icmp eq ptr %31, null
  br i1 %.not27, label %33, label %32

32:                                               ; preds = %29
  call void @add_property_string_ex(ptr noundef nonnull %3, ptr noundef nonnull @.str.10, i64 noundef 4, ptr noundef nonnull %31) #17
  br label %34

33:                                               ; preds = %29
  call void @add_property_stringl_ex(ptr noundef nonnull %3, ptr noundef nonnull @.str.10, i64 noundef 4, ptr noundef nonnull @.str.9, i64 noundef 0) #17
  br label %34

34:                                               ; preds = %33, %32
  %35 = getelementptr inbounds i8, ptr %.029, i64 32
  %36 = load i32, ptr %35, align 8
  %37 = sext i32 %36 to i64
  call void @add_property_long_ex(ptr noundef nonnull %3, ptr noundef nonnull @.str.11, i64 noundef 4, i64 noundef %37) #17
  %38 = load ptr, ptr %1, align 8
  %39 = call ptr @zend_hash_next_index_insert(ptr noundef %38, ptr noundef nonnull %3) #17
  %40 = load ptr, ptr getelementptr inbounds (%struct._zend_libxml_globals, ptr @libxml_globals, i64 0, i32 2), align 8
  %41 = call ptr @zend_llist_get_next_ex(ptr noundef %40, ptr noundef null) #17
  %.not25 = icmp eq ptr %41, null
  br i1 %.not25, label %.loopexit, label %.lr.ph

42:                                               ; preds = %7
  store ptr @zend_empty_array, ptr %1, align 8
  %43 = getelementptr inbounds i8, ptr %1, i64 8
  store i32 7, ptr %43, align 8
  br label %.loopexit

.loopexit:                                        ; preds = %34, %9, %42, %6
  ret void
}